target datalayout = "e-m:e-p270:32:32-p271:32:32-p272:64:64-i64:64-i128:128-f80:128-n8:16:32:64-S128"
target triple = "x86_64-pc-linux-gnu"

%struct.lean_object = type { i32, i32 }
%struct.lean_sarray_object = type { %struct.lean_object, i64, i64, [0 x i8] }

; Function Attrs: alwaysinline mustprogress uwtable
define internal void @_ZL12lean_dec_refP11lean_object(ptr noundef %0) #8 {
  %2 = alloca ptr, align 8
  store ptr %0, ptr %2, align 8, !tbaa !3
  %3 = load ptr, ptr %2, align 8, !tbaa !3
  %4 = getelementptr inbounds nuw %struct.lean_object, ptr %3, i32 0, i32 0
  %5 = load i32, ptr %4, align 4, !tbaa !31
  %6 = icmp sgt i32 %5, 1
  %7 = zext i1 %6 to i64
  %8 = call i64 @llvm.expect.i64(i64 %7, i64 1)
  %9 = icmp ne i64 %8, 0
  br i1 %9, label %10, label %15

10:                                               ; preds = %1
  %11 = load ptr, ptr %2, align 8, !tbaa !3
  %12 = getelementptr inbounds nuw %struct.lean_object, ptr %11, i32 0, i32 0
  %13 = load i32, ptr %12, align 4, !tbaa !31
  %14 = add nsw i32 %13, -1
  store i32 %14, ptr %12, align 4, !tbaa !31
  br label %23

15:                                               ; preds = %1
  %16 = load ptr, ptr %2, align 8, !tbaa !3
  %17 = getelementptr inbounds nuw %struct.lean_object, ptr %16, i32 0, i32 0
  %18 = load i32, ptr %17, align 4, !tbaa !31
  %19 = icmp ne i32 %18, 0
  br i1 %19, label %20, label %22

20:                                               ; preds = %15
  %21 = load ptr, ptr %2, align 8, !tbaa !3
  call void @lean_dec_ref_cold(ptr noundef %21)
  br label %22

22:                                               ; preds = %20, %15
  br label %23

23:                                               ; preds = %22, %10
  ret void
}

; Function Attrs: alwaysinline mustprogress nounwind uwtable
define internal noundef zeroext i1 @_ZL14lean_is_scalarP11lean_object(ptr noundef %0) #11 {
  %2 = alloca ptr, align 8
  store ptr %0, ptr %2, align 8, !tbaa !3
  %3 = load ptr, ptr %2, align 8, !tbaa !3
  %4 = ptrtoint ptr %3 to i64
  %5 = and i64 %4, 1
  %6 = icmp eq i64 %5, 1
  ret i1 %6
}

; Function Attrs: inlinehint mustprogress nounwind uwtable
define internal void @_ZL18lean_set_st_headerP11lean_objectjj(ptr noundef %0, i32 noundef %1, i32 noundef %2) #9 {
  %4 = alloca ptr, align 8
  %5 = alloca i32, align 4
  %6 = alloca i32, align 4
  store ptr %0, ptr %4, align 8, !tbaa !3
  store i32 %1, ptr %5, align 4, !tbaa !19
  store i32 %2, ptr %6, align 4, !tbaa !19
  %7 = load ptr, ptr %4, align 8, !tbaa !3
  %8 = getelementptr inbounds nuw %struct.lean_object, ptr %7, i32 0, i32 0
  store i32 1, ptr %8, align 4, !tbaa !31
  %9 = load i32, ptr %5, align 4, !tbaa !19
  %10 = load ptr, ptr %4, align 8, !tbaa !3
  %11 = getelementptr inbounds nuw %struct.lean_object, ptr %10, i32 0, i32 1
  %12 = load i32, ptr %11, align 4
  %13 = and i32 %9, 255
  %14 = shl i32 %13, 24
  %15 = and i32 %12, 16777215
  %16 = or i32 %15, %14
  store i32 %16, ptr %11, align 4
  %17 = load i32, ptr %6, align 4, !tbaa !19
  %18 = load ptr, ptr %4, align 8, !tbaa !3
  %19 = getelementptr inbounds nuw %struct.lean_object, ptr %18, i32 0, i32 1
  %20 = load i32, ptr %19, align 4
  %21 = and i32 %17, 255
  %22 = shl i32 %21, 16
  %23 = and i32 %20, -16711681
  %24 = or i32 %23, %22
  store i32 %24, ptr %19, align 4
  ret void
}

; Function Attrs: mustprogress uwtable
define ptr @lean_alloc_object(i64 noundef %0) #0 {
  %2 = alloca i64, align 8
  %3 = alloca ptr, align 8
  %4 = alloca ptr, align 8
  store i64 %0, ptr %2, align 8, !tbaa !7
  call void @llvm.lifetime.start.p0(i64 8, ptr %3) #23
  %5 = load i64, ptr %2, align 8, !tbaa !7
  %6 = call noalias ptr @mi_malloc(i64 noundef %5) #23
  store ptr %6, ptr %3, align 8, !tbaa !3
  %7 = load ptr, ptr %3, align 8, !tbaa !3
  %8 = icmp eq ptr %7, null
  br i1 %8, label %9, label %10

9:                                                ; preds = %1
  call void @lean_internal_panic_out_of_memory() #25
  unreachable

10:                                               ; preds = %1
  call void @llvm.lifetime.start.p0(i64 8, ptr %4) #23
  %11 = load ptr, ptr %3, align 8, !tbaa !3
  store ptr %11, ptr %4, align 8, !tbaa !3
  %12 = load ptr, ptr %4, align 8, !tbaa !3
  %13 = getelementptr inbounds nuw %struct.lean_object, ptr %12, i32 0, i32 1
  %14 = load i32, ptr %13, align 4
  %15 = and i32 %14, -65536
  %16 = or i32 %15, 0
  store i32 %16, ptr %13, align 4
  %17 = load ptr, ptr %4, align 8, !tbaa !3
  call void @llvm.lifetime.end.p0(i64 8, ptr %4) #23
  call void @llvm.lifetime.end.p0(i64 8, ptr %3) #23
  ret ptr %17
}

; Function Attrs: inlinehint mustprogress nounwind uwtable
define internal noundef i32 @_ZL14lean_ptr_otherP11lean_object(ptr noundef %0) #9 {
  %2 = alloca ptr, align 8
  store ptr %0, ptr %2, align 8, !tbaa !3
  %3 = load ptr, ptr %2, align 8, !tbaa !3
  %4 = getelementptr inbounds nuw %struct.lean_object, ptr %3, i32 0, i32 1
  %5 = load i32, ptr %4, align 4
  %6 = lshr i32 %5, 16
  %7 = and i32 %6, 255
  ret i32 %7
}

; Function Attrs: alwaysinline mustprogress uwtable
define internal void @_ZL8lean_decP11lean_object(ptr noundef %0) #8 {
  %2 = alloca ptr, align 8
  store ptr %0, ptr %2, align 8, !tbaa !3
  %3 = load ptr, ptr %2, align 8, !tbaa !3
  %4 = call noundef zeroext i1 @_ZL14lean_is_scalarP11lean_object(ptr noundef %3)
  br i1 %4, label %7, label %5

5:                                                ; preds = %1
  %6 = load ptr, ptr %2, align 8, !tbaa !3
  call void @_ZL12lean_dec_refP11lean_object(ptr noundef %6)
  br label %7

7:                                                ; preds = %5, %1
  ret void
}

; Function Attrs: inlinehint mustprogress uwtable
define internal noundef ptr @_ZL16lean_sarray_cptrP11lean_object(ptr noundef %0) #3 {
  %2 = alloca ptr, align 8
  store ptr %0, ptr %2, align 8, !tbaa !3
  %3 = load ptr, ptr %2, align 8, !tbaa !3
  %4 = call noundef ptr @_ZL14lean_to_sarrayP11lean_object(ptr noundef %3)
  %5 = getelementptr inbounds nuw %struct.lean_sarray_object, ptr %4, i32 0, i32 3
  %6 = getelementptr inbounds [0 x i8], ptr %5, i64 0, i64 0
  ret ptr %6
}

; Function Attrs: inlinehint mustprogress uwtable
define internal noundef ptr @_ZL17lean_alloc_sarrayjmm(i32 noundef %0, i64 noundef %1, i64 noundef %2) #3 {
  %4 = alloca i32, align 4
  %5 = alloca i64, align 8
  %6 = alloca i64, align 8
  %7 = alloca ptr, align 8
  store i32 %0, ptr %4, align 4, !tbaa !19
  store i64 %1, ptr %5, align 8, !tbaa !7
  store i64 %2, ptr %6, align 8, !tbaa !7
  call void @llvm.lifetime.start.p0(i64 8, ptr %7) #23
  %8 = load i32, ptr %4, align 4, !tbaa !19
  %9 = zext i32 %8 to i64
  %10 = load i64, ptr %6, align 8, !tbaa !7
  %11 = mul i64 %9, %10
  %12 = add i64 24, %11
  %13 = call ptr @lean_alloc_object(i64 noundef %12)
  store ptr %13, ptr %7, align 8, !tbaa !3
  %14 = load ptr, ptr %7, align 8, !tbaa !3
  %15 = load i32, ptr %4, align 4, !tbaa !19
  call void @_ZL18lean_set_st_headerP11lean_objectjj(ptr noundef %14, i32 noundef 248, i32 noundef %15)
  %16 = load i64, ptr %5, align 8, !tbaa !7
  %17 = load ptr, ptr %7, align 8, !tbaa !3
  %18 = getelementptr inbounds nuw %struct.lean_sarray_object, ptr %17, i32 0, i32 1
  store i64 %16, ptr %18, align 8, !tbaa !7
  %19 = load i64, ptr %6, align 8, !tbaa !7
  %20 = load ptr, ptr %7, align 8, !tbaa !3
  %21 = getelementptr inbounds nuw %struct.lean_sarray_object, ptr %20, i32 0, i32 2
  store i64 %19, ptr %21, align 8, !tbaa !7
  %22 = load ptr, ptr %7, align 8, !tbaa !3
  call void @llvm.lifetime.end.p0(i64 8, ptr %7) #23
  ret ptr %22
}

; Function Attrs: inlinehint mustprogress uwtable
define internal noundef i64 @_ZL16lean_sarray_sizeP11lean_object(ptr noundef %0) #3 {
  %2 = alloca ptr, align 8
  store ptr %0, ptr %2, align 8, !tbaa !3
  %3 = load ptr, ptr %2, align 8, !tbaa !3
  %4 = call noundef ptr @_ZL14lean_to_sarrayP11lean_object(ptr noundef %3)
  %5 = getelementptr inbounds nuw %struct.lean_sarray_object, ptr %4, i32 0, i32 1
  %6 = load i64, ptr %5, align 8, !tbaa !7
  ret i64 %6
}

; Function Attrs: inlinehint mustprogress nounwind uwtable
define internal noundef i32 @_ZL21lean_sarray_elem_sizeP11lean_object(ptr noundef %0) #9 {
  %2 = alloca ptr, align 8
  store ptr %0, ptr %2, align 8, !tbaa !3
  %3 = load ptr, ptr %2, align 8, !tbaa !3
  %4 = call noundef i32 @_ZL14lean_ptr_otherP11lean_object(ptr noundef %3)
  ret i32 %4
}

; Function Attrs: inlinehint mustprogress nounwind uwtable
define internal noundef ptr @_ZL14lean_to_sarrayP11lean_object(ptr noundef %0) #9 {
  %2 = alloca ptr, align 8
  store ptr %0, ptr %2, align 8, !tbaa !3
  %3 = load ptr, ptr %2, align 8, !tbaa !3
  ret ptr %3
}

; Function Attrs: mustprogress uwtable
define ptr @lean_copy_sarray(ptr noundef %0, i64 noundef %1) #0 {
  %3 = alloca ptr, align 8
  %4 = alloca i64, align 8
  %5 = alloca i32, align 4
  %6 = alloca i64, align 8
  %7 = alloca ptr, align 8
  %8 = alloca ptr, align 8
  %9 = alloca ptr, align 8
  store ptr %0, ptr %3, align 8, !tbaa !3
  store i64 %1, ptr %4, align 8, !tbaa !7
  call void @llvm.lifetime.start.p0(i64 4, ptr %5) #23
  %10 = load ptr, ptr %3, align 8, !tbaa !3
  %11 = call noundef i32 @_ZL21lean_sarray_elem_sizeP11lean_object(ptr noundef %10)
  store i32 %11, ptr %5, align 4, !tbaa !19
  call void @llvm.lifetime.start.p0(i64 8, ptr %6) #23
  %12 = load ptr, ptr %3, align 8, !tbaa !3
  %13 = call noundef i64 @_ZL16lean_sarray_sizeP11lean_object(ptr noundef %12)
  store i64 %13, ptr %6, align 8, !tbaa !7
  call void @llvm.lifetime.start.p0(i64 8, ptr %7) #23
  %14 = load i32, ptr %5, align 4, !tbaa !19
  %15 = load i64, ptr %6, align 8, !tbaa !7
  %16 = load i64, ptr %4, align 8, !tbaa !7
  %17 = call noundef ptr @_ZL17lean_alloc_sarrayjmm(i32 noundef %14, i64 noundef %15, i64 noundef %16)
  store ptr %17, ptr %7, align 8, !tbaa !3
  call void @llvm.lifetime.start.p0(i64 8, ptr %8) #23
  %18 = load ptr, ptr %3, align 8, !tbaa !3
  %19 = call noundef ptr @_ZL16lean_sarray_cptrP11lean_object(ptr noundef %18)
  store ptr %19, ptr %8, align 8, !tbaa !9
  call void @llvm.lifetime.start.p0(i64 8, ptr %9) #23
  %20 = load ptr, ptr %7, align 8, !tbaa !3
  %21 = call noundef ptr @_ZL16lean_sarray_cptrP11lean_object(ptr noundef %20)
  store ptr %21, ptr %9, align 8, !tbaa !9
  %22 = load ptr, ptr %9, align 8, !tbaa !9
  %23 = load ptr, ptr %8, align 8, !tbaa !9
  %24 = load i32, ptr %5, align 4, !tbaa !19
  %25 = zext i32 %24 to i64
  %26 = load i64, ptr %6, align 8, !tbaa !7
  %27 = mul i64 %25, %26
  call void @llvm.memcpy.p0.p0.i64(ptr align 1 %22, ptr align 1 %23, i64 %27, i1 false)
  %28 = load ptr, ptr %3, align 8, !tbaa !3
  call void @_ZL8lean_decP11lean_object(ptr noundef %28)
  %29 = load ptr, ptr %7, align 8, !tbaa !3
  call void @llvm.lifetime.end.p0(i64 8, ptr %9) #23
  call void @llvm.lifetime.end.p0(i64 8, ptr %8) #23
  call void @llvm.lifetime.end.p0(i64 8, ptr %7) #23
  call void @llvm.lifetime.end.p0(i64 8, ptr %6) #23
  call void @llvm.lifetime.end.p0(i64 4, ptr %5) #23
  ret ptr %29
}

; Function Attrs: inlinehint mustprogress uwtable
define internal noundef i64 @_ZL20lean_sarray_capacityP11lean_object(ptr noundef %0) #3 {
  %2 = alloca ptr, align 8
  store ptr %0, ptr %2, align 8, !tbaa !3
  %3 = load ptr, ptr %2, align 8, !tbaa !3
  %4 = call noundef ptr @_ZL14lean_to_sarrayP11lean_object(ptr noundef %3)
  %5 = getelementptr inbounds nuw %struct.lean_sarray_object, ptr %4, i32 0, i32 2
  %6 = load i64, ptr %5, align 8, !tbaa !7
  ret i64 %6
}

; Function Attrs: mustprogress uwtable
define ptr @lean_copy_float_array(ptr noundef %0) #0 {
  %2 = alloca ptr, align 8
  store ptr %0, ptr %2, align 8, !tbaa !3
  %3 = load ptr, ptr %2, align 8, !tbaa !3
  %4 = load ptr, ptr %2, align 8, !tbaa !3
  %5 = call noundef i64 @_ZL20lean_sarray_capacityP11lean_object(ptr noundef %4)
  %6 = call ptr @lean_copy_sarray(ptr noundef %3, i64 noundef %5)
  ret ptr %6
}