; Function Attrs: mustprogress uwtable
define noalias nonnull ptr @lean_copy_float_array(ptr noundef %0) local_unnamed_addr #0 {
  %2 = getelementptr i8, ptr %0, i64 16
  %.val = load i64, ptr %2, align 8, !tbaa !30
  %3 = getelementptr i8, ptr %0, i64 4
  %.val.i = load i32, ptr %3, align 4
  %4 = lshr i32 %.val.i, 16
  %5 = and i32 %4, 255
  %6 = getelementptr i8, ptr %0, i64 8
  %.val12.i = load i64, ptr %6, align 8, !tbaa !30
  %7 = zext nneg i32 %5 to i64
  %8 = mul i64 %.val, %7
  %9 = add i64 %8, 24
  %10 = tail call noalias ptr @mi_malloc(i64 noundef %9) #40
  %11 = icmp eq ptr %10, null
  br i1 %11, label %12, label %_ZL17lean_alloc_sarrayjmm.exit.i

12:                                               ; preds = %1
  tail call void @lean_internal_panic_out_of_memory() #43
  unreachable

_ZL17lean_alloc_sarrayjmm.exit.i:                 ; preds = %1
  %13 = getelementptr inbounds nuw i8, ptr %10, i64 4
  store i32 1, ptr %10, align 4, !tbaa !23
  %14 = shl nuw nsw i32 %5, 16
  %15 = or disjoint i32 %14, -134217728
  store i32 %15, ptr %13, align 4
  %16 = getelementptr inbounds nuw i8, ptr %10, i64 8
  store i64 %.val12.i, ptr %16, align 8, !tbaa !30
  %17 = getelementptr inbounds nuw i8, ptr %10, i64 16
  store i64 %.val, ptr %17, align 8, !tbaa !30
  %18 = getelementptr inbounds nuw i8, ptr %0, i64 24
  %19 = getelementptr inbounds nuw i8, ptr %10, i64 24
  %20 = mul i64 %.val12.i, %7
  tail call void @llvm.memcpy.p0.p0.i64(ptr nonnull align 1 %19, ptr nonnull align 1 %18, i64 %20, i1 false)
  %21 = ptrtoint ptr %0 to i64
  %22 = and i64 %21, 1
  %.not.i = icmp eq i64 %22, 0
  br i1 %.not.i, label %23, label %lean_copy_sarray.exit

23:                                               ; preds = %_ZL17lean_alloc_sarrayjmm.exit.i
  %24 = load i32, ptr %0, align 4, !tbaa !23
  %25 = icmp sgt i32 %24, 1
  br i1 %25, label %26, label %28, !prof !25

26:                                               ; preds = %23
  %27 = add nsw i32 %24, -1
  store i32 %27, ptr %0, align 4, !tbaa !23
  br label %lean_copy_sarray.exit

28:                                               ; preds = %23
  %.not.i.i = icmp eq i32 %24, 0
  br i1 %.not.i.i, label %lean_copy_sarray.exit, label %29

29:                                               ; preds = %28
  tail call void @lean_dec_ref_cold(ptr noundef nonnull %0)
  br label %lean_copy_sarray.exit

lean_copy_sarray.exit:                            ; preds = %_ZL17lean_alloc_sarrayjmm.exit.i, %26, %28, %29
  ret ptr %10
}